Certificate:
    Data:
        Version: 3 (0x2)
        Serial Number: 43 (0x2b)
        Signature Algorithm: sha256WithRSAEncryption
        Issuer: C=US, O=Google, OU=Enterprise, CN=Enterprise Subordinate CA
        Validity
            Not Before: Oct  4 01:36:29 2022 GMT
            Not After : Jan 11 01:36:29 2025 GMT
        Subject: C=US, O=Google, OU=Enterprise, CN=grpcweb.domain.com
        Subject Public Key Info:
            Public Key Algorithm: rsaEncryption
                Public-Key: (2048 bit)
                Modulus:
                    00:b1:c3:9d:15:ad:74:f9:b9:b3:90:80:04:d3:5d:
                    9f:98:cb:27:e7:40:e4:8a:dd:d1:e3:08:c1:f3:95:
                    2e:9d:d3:15:20:2a:61:e2:6f:c6:2f:56:97:6d:5c:
                    da:e7:e1:4d:11:0e:1a:ca:75:7b:62:93:5a:50:c7:
                    0b:da:c4:83:3d:64:2e:c3:0e:ee:c7:f6:31:72:ea:
                    13:25:37:d0:c5:c9:eb:36:3b:7c:5d:b3:0b:cd:c3:
                    9e:b6:b0:5d:65:e0:5c:2a:c3:54:96:05:2d:82:73:
                    fe:67:c7:c0:90:07:30:46:18:8a:9e:7e:ce:f5:67:
                    1c:06:d0:54:9e:ad:e9:80:d6:11:4b:11:9c:23:c5:
                    03:88:55:93:0f:a8:87:c6:24:29:14:70:17:40:ac:
                    50:7f:6c:a5:c2:c3:64:b2:1a:58:87:0f:0c:8a:b8:
                    bb:bb:34:40:fb:7f:70:f3:a6:c5:12:35:69:09:bf:
                    41:d9:02:32:62:a2:7f:ca:50:1a:26:98:44:02:ac:
                    c6:59:ab:d4:76:35:64:b3:41:fa:51:d2:e8:e3:f9:
                    45:32:bc:91:48:70:5e:ab:f5:4c:23:e3:31:3c:72:
                    09:47:ae:d8:04:b1:c2:c6:38:19:48:0d:05:91:e6:
                    88:1a:ed:e4:f6:5e:38:85:8b:08:62:86:fd:7f:b7:
                    ce:03
                Exponent: 65537 (0x10001)
        X509v3 extensions:
            X509v3 Key Usage: critical
                Digital Signature
            X509v3 Basic Constraints: 
                CA:FALSE
            X509v3 Extended Key Usage: 
                TLS Web Server Authentication
            X509v3 Subject Key Identifier: 
                F3:84:B3:20:A0:DB:EA:30:37:6E:2B:E3:8F:68:EF:D8:0B:84:F4:F2
            X509v3 Authority Key Identifier: 
                B7:BA:B0:02:A1:E7:BE:34:C6:C1:05:5C:66:78:E5:BB:53:5D:A1:54
            Authority Information Access: 
                CA Issuers - URI:http://pki.esodemoapp2.com/ca/tls-ca.cer
            X509v3 CRL Distribution Points: 
                Full Name:
                  URI:http://pki.esodemoapp2.com/ca/tls-ca.crl
            X509v3 Subject Alternative Name: 
                DNS:grpcweb.domain.com
    Signature Algorithm: sha256WithRSAEncryption
    Signature Value:
        45:8e:11:dc:5c:fa:77:a3:45:9a:98:cc:31:bb:f1:3e:36:99:
        c6:ab:80:cc:b8:c4:a6:05:f1:fe:93:6f:c6:df:4e:41:2f:90:
        4b:ee:c9:40:5a:e2:c9:d9:dd:38:1f:2d:9b:67:d4:a5:9f:c8:
        f1:81:d7:3e:60:f9:b0:a1:b8:03:c6:51:9e:fc:08:4d:3d:b9:
        56:0b:00:82:5e:1f:d4:12:34:81:78:4a:4c:87:cf:46:c0:0e:
        e1:eb:cf:73:1c:2d:9d:84:65:6a:0d:77:2a:bf:3a:ee:cf:50:
        81:f1:2b:71:b6:d8:8e:fb:4b:b6:1f:15:c6:c9:28:fe:20:dc:
        3c:20:96:2b:de:9f:c8:f7:28:79:01:56:b1:c4:8d:13:a3:d5:
        2e:31:de:6a:4b:d1:32:da:97:c6:a9:08:32:e3:af:d4:84:d0:
        37:1d:0b:20:4c:d2:24:03:89:b0:db:d3:0c:ff:41:a1:39:43:
        75:04:42:59:87:af:cd:e2:2c:ed:7f:c5:df:31:6d:68:97:67:
        ec:b8:b7:49:dc:0c:b1:97:1d:4b:bc:f1:65:26:10:70:6c:e0:
        39:31:e9:b8:9f:df:20:9e:f5:44:08:ef:de:dd:c9:85:6c:02:
        a6:a7:dc:1b:4a:ab:01:b0:8a:49:ae:52:35:5b:69:33:7e:5b:
        2e:7f:2e:f9
-----BEGIN CERTIFICATE-----
MIIEODCCAyCgAwIBAgIBKzANBgkqhkiG9w0BAQsFADBXMQswCQYDVQQGEwJVUzEP
MA0GA1UECgwGR29vZ2xlMRMwEQYDVQQLDApFbnRlcnByaXNlMSIwIAYDVQQDDBlF
bnRlcnByaXNlIFN1Ym9yZGluYXRlIENBMB4XDTIyMTAwNDAxMzYyOVoXDTI1MDEx
MTAxMzYyOVowUDELMAkGA1UEBhMCVVMxDzANBgNVBAoMBkdvb2dsZTETMBEGA1UE
CwwKRW50ZXJwcmlzZTEbMBkGA1UEAwwSZ3JwY3dlYi5kb21haW4uY29tMIIBIjAN
BgkqhkiG9w0BAQEFAAOCAQ8AMIIBCgKCAQEAscOdFa10+bmzkIAE012fmMsn50Dk
it3R4wjB85UundMVICph4m/GL1aXbVza5+FNEQ4aynV7YpNaUMcL2sSDPWQuww7u
x/YxcuoTJTfQxcnrNjt8XbMLzcOetrBdZeBcKsNUlgUtgnP+Z8fAkAcwRhiKnn7O
9WccBtBUnq3pgNYRSxGcI8UDiFWTD6iHxiQpFHAXQKxQf2ylwsNkshpYhw8Miri7
uzRA+39w86bFEjVpCb9B2QIyYqJ/ylAaJphEAqzGWavUdjVks0H6UdLo4/lFMryR
SHBeq/VMI+MxPHIJR67YBLHCxjgZSA0FkeaIGu3k9l44hYsIYob9f7fOAwIDAQAB
o4IBFDCCARAwDgYDVR0PAQH/BAQDAgeAMAkGA1UdEwQCMAAwEwYDVR0lBAwwCgYI
KwYBBQUHAwEwHQYDVR0OBBYEFPOEsyCg2+owN24r449o79gLhPTyMB8GA1UdIwQY
MBaAFLe6sAKh5740xsEFXGZ45btTXaFUMEQGCCsGAQUFBwEBBDgwNjA0BggrBgEF
BQcwAoYoaHR0cDovL3BraS5lc29kZW1vYXBwMi5jb20vY2EvdGxzLWNhLmNlcjA5
BgNVHR8EMjAwMC6gLKAqhihodHRwOi8vcGtpLmVzb2RlbW9hcHAyLmNvbS9jYS90
bHMtY2EuY3JsMB0GA1UdEQQWMBSCEmdycGN3ZWIuZG9tYWluLmNvbTANBgkqhkiG
9w0BAQsFAAOCAQEARY4R3Fz6d6NFmpjMMbvxPjaZxquAzLjEpgXx/pNvxt9OQS+Q
S+7JQFriydndOB8tm2fUpZ/I8YHXPmD5sKG4A8ZRnvwITT25VgsAgl4f1BI0gXhK
TIfPRsAO4evPcxwtnYRlag13Kr867s9QgfErcbbYjvtLth8Vxsko/iDcPCCWK96f
yPcoeQFWscSNE6PVLjHeakvRMtqXxqkIMuOv1ITQNx0LIEzSJAOJsNvTDP9BoTlD
dQRCWYevzeIs7X/F3zFtaJdn7Li3SdwMsZcdS7zxZSYQcGzgOTHpuJ/fIJ71RAjv
3t3JhWwCpqfcG0qrAbCKSa5SNVtpM35bLn8u+Q==
-----END CERTIFICATE-----
