Certificate:
    Data:
        Version: 3 (0x2)
        Serial Number: 42 (0x2a)
        Signature Algorithm: sha256WithRSAEncryption
        Issuer: C=US, O=Google, OU=Enterprise, CN=Enterprise Subordinate CA
        Validity
            Not Before: Oct  4 01:33:22 2022 GMT
            Not After : Jan 11 01:33:22 2025 GMT
        Subject: C=US, O=Google, OU=Enterprise, CN=transcoding.domain.com
        Subject Public Key Info:
            Public Key Algorithm: rsaEncryption
                Public-Key: (2048 bit)
                Modulus:
                    00:b9:60:ea:a4:c7:05:fa:b2:41:49:fa:f1:8d:ee:
                    2d:8c:6a:68:19:04:9b:03:5a:aa:46:44:e7:d5:42:
                    b9:ba:41:81:6a:b6:c1:7e:83:d5:2c:af:60:02:1e:
                    d1:b5:da:6d:8d:f8:fe:aa:5e:44:63:73:53:b9:0b:
                    31:df:be:d5:13:67:86:7f:e8:53:31:64:f4:06:a9:
                    7e:fb:fd:91:dc:b1:b2:61:a3:9b:3f:00:d8:45:5c:
                    39:db:d7:1e:ba:6e:5e:9c:50:3c:e3:8b:ee:55:7e:
                    e7:e9:34:26:1d:b0:49:01:14:6d:b2:5b:3f:84:8d:
                    44:f9:e3:27:32:4a:f8:bb:36:23:6d:0e:a5:d1:f0:
                    04:36:db:74:75:a5:3b:ea:97:15:b8:28:0b:08:06:
                    a1:5e:b7:4e:dd:bc:1a:bf:bf:cc:79:9c:b0:d5:31:
                    b0:8e:06:7f:0d:27:3c:25:c4:ee:77:ce:47:51:d3:
                    a5:de:51:b4:d2:d8:47:68:ca:45:6c:c7:52:9a:9b:
                    ae:45:53:12:62:bf:13:49:a3:bd:ca:91:11:e0:83:
                    99:44:5a:62:e9:aa:a6:e9:16:5f:20:f8:63:55:af:
                    e0:e4:33:e7:51:d1:4b:71:8c:3c:91:eb:64:f9:5f:
                    f0:a2:99:27:78:ed:a2:a3:fa:f7:f7:b1:b4:e0:56:
                    5a:83
                Exponent: 65537 (0x10001)
        X509v3 extensions:
            X509v3 Key Usage: critical
                Digital Signature
            X509v3 Basic Constraints: 
                CA:FALSE
            X509v3 Extended Key Usage: 
                TLS Web Server Authentication
            X509v3 Subject Key Identifier: 
                CC:A5:A5:65:03:C2:C2:21:B0:B7:4C:4B:08:59:25:63:D9:FA:88:2E
            X509v3 Authority Key Identifier: 
                B7:BA:B0:02:A1:E7:BE:34:C6:C1:05:5C:66:78:E5:BB:53:5D:A1:54
            Authority Information Access: 
                CA Issuers - URI:http://pki.esodemoapp2.com/ca/tls-ca.cer
            X509v3 CRL Distribution Points: 
                Full Name:
                  URI:http://pki.esodemoapp2.com/ca/tls-ca.crl
            X509v3 Subject Alternative Name: 
                DNS:transcoding.domain.com
    Signature Algorithm: sha256WithRSAEncryption
    Signature Value:
        9f:b2:c8:db:6d:78:9a:98:64:3b:d4:3c:db:cd:95:e3:46:b5:
        5b:e9:f4:3a:19:aa:75:76:9d:1f:7a:f7:aa:f8:44:77:3a:5c:
        ed:6d:d2:be:6e:1a:b0:b7:e1:b3:52:69:25:f4:d2:6d:f4:a7:
        8e:af:4b:b6:dc:e4:48:53:e0:66:f5:c6:d9:e6:c2:8b:98:6c:
        62:38:7c:fd:2f:04:1a:cb:2f:ef:e6:83:89:94:2c:ad:a8:63:
        61:c9:9c:50:8b:c7:2d:78:99:63:7a:fd:81:2b:6d:b2:d4:a2:
        d6:f5:57:84:83:63:cd:1f:53:1c:30:8a:a4:16:2e:88:89:d5:
        5c:a0:f4:e2:a6:a5:97:82:6e:48:d4:12:f7:f3:37:7c:9f:41:
        54:12:01:fb:9d:14:54:14:95:fe:66:9a:b0:6f:29:29:12:59:
        f3:49:05:56:9e:60:52:5b:36:d3:a7:da:14:09:50:0c:a5:88:
        61:1b:e0:14:96:3f:f3:99:79:4b:8e:0b:9a:14:c9:ee:46:48:
        fa:d7:28:b0:16:3a:57:23:8f:d5:98:5d:24:e0:91:af:e4:3c:
        2e:2a:f2:bc:b8:e4:42:8a:57:70:26:0c:01:15:3e:4c:b6:b5:
        bf:4a:da:86:d8:c6:32:cc:6a:85:cd:86:4f:65:21:1e:c9:41:
        93:4a:ff:c2
-----BEGIN CERTIFICATE-----
MIIEQDCCAyigAwIBAgIBKjANBgkqhkiG9w0BAQsFADBXMQswCQYDVQQGEwJVUzEP
MA0GA1UECgwGR29vZ2xlMRMwEQYDVQQLDApFbnRlcnByaXNlMSIwIAYDVQQDDBlF
bnRlcnByaXNlIFN1Ym9yZGluYXRlIENBMB4XDTIyMTAwNDAxMzMyMloXDTI1MDEx
MTAxMzMyMlowVDELMAkGA1UEBhMCVVMxDzANBgNVBAoMBkdvb2dsZTETMBEGA1UE
CwwKRW50ZXJwcmlzZTEfMB0GA1UEAwwWdHJhbnNjb2RpbmcuZG9tYWluLmNvbTCC
ASIwDQYJKoZIhvcNAQEBBQADggEPADCCAQoCggEBALlg6qTHBfqyQUn68Y3uLYxq
aBkEmwNaqkZE59VCubpBgWq2wX6D1SyvYAIe0bXabY34/qpeRGNzU7kLMd++1RNn
hn/oUzFk9Aapfvv9kdyxsmGjmz8A2EVcOdvXHrpuXpxQPOOL7lV+5+k0Jh2wSQEU
bbJbP4SNRPnjJzJK+Ls2I20OpdHwBDbbdHWlO+qXFbgoCwgGoV63Tt28Gr+/zHmc
sNUxsI4Gfw0nPCXE7nfOR1HTpd5RtNLYR2jKRWzHUpqbrkVTEmK/E0mjvcqREeCD
mURaYumqpukWXyD4Y1Wv4OQz51HRS3GMPJHrZPlf8KKZJ3jtoqP69/extOBWWoMC
AwEAAaOCARgwggEUMA4GA1UdDwEB/wQEAwIHgDAJBgNVHRMEAjAAMBMGA1UdJQQM
MAoGCCsGAQUFBwMBMB0GA1UdDgQWBBTMpaVlA8LCIbC3TEsIWSVj2fqILjAfBgNV
HSMEGDAWgBS3urACoee+NMbBBVxmeOW7U12hVDBEBggrBgEFBQcBAQQ4MDYwNAYI
KwYBBQUHMAKGKGh0dHA6Ly9wa2kuZXNvZGVtb2FwcDIuY29tL2NhL3Rscy1jYS5j
ZXIwOQYDVR0fBDIwMDAuoCygKoYoaHR0cDovL3BraS5lc29kZW1vYXBwMi5jb20v
Y2EvdGxzLWNhLmNybDAhBgNVHREEGjAYghZ0cmFuc2NvZGluZy5kb21haW4uY29t
MA0GCSqGSIb3DQEBCwUAA4IBAQCfssjbbXiamGQ71DzbzZXjRrVb6fQ6Gap1dp0f
eveq+ER3OlztbdK+bhqwt+GzUmkl9NJt9KeOr0u23ORIU+Bm9cbZ5sKLmGxiOHz9
LwQayy/v5oOJlCytqGNhyZxQi8cteJljev2BK22y1KLW9VeEg2PNH1McMIqkFi6I
idVcoPTipqWXgm5I1BL38zd8n0FUEgH7nRRUFJX+ZpqwbykpElnzSQVWnmBSWzbT
p9oUCVAMpYhhG+AUlj/zmXlLjguaFMnuRkj61yiwFjpXI4/VmF0k4JGv5DwuKvK8
uORCildwJgwBFT5MtrW/StqG2MYyzGqFzYZPZSEeyUGTSv/C
-----END CERTIFICATE-----
