Certificate:
    Data:
        Version: 3 (0x2)
        Serial Number: 44 (0x2c)
        Signature Algorithm: sha256WithRSAEncryption
        Issuer: C=US, O=Google, OU=Enterprise, CN=Enterprise Subordinate CA
        Validity
            Not Before: Oct  4 01:38:38 2022 GMT
            Not After : Jan 11 01:38:38 2025 GMT
        Subject: C=US, O=Google, OU=Enterprise, CN=frontend.domain.com
        Subject Public Key Info:
            Public Key Algorithm: rsaEncryption
                Public-Key: (2048 bit)
                Modulus:
                    00:b7:56:cd:97:3c:81:34:8d:4e:e5:7d:73:3e:d6:
                    53:3c:7d:cc:54:05:f6:c5:fa:79:d9:75:ac:9d:46:
                    34:c0:97:70:3e:16:a9:1d:11:f9:89:34:55:3a:58:
                    c7:7b:d9:61:bd:a5:0a:00:c2:88:d7:59:f2:df:25:
                    3b:3b:bc:b1:d5:ab:00:14:d5:08:57:d6:16:7a:88:
                    43:a0:07:d4:4d:20:2a:fd:29:fd:fd:bc:fb:59:87:
                    80:6a:6f:41:de:58:9b:12:df:97:23:1b:0d:64:f3:
                    01:82:f0:91:6a:bb:8b:67:a7:38:27:72:d4:d7:71:
                    63:37:1b:f2:e0:6e:40:b1:3e:a7:17:64:4e:83:40:
                    3c:9b:0a:f8:96:26:27:f2:9d:21:6c:4b:fc:45:e7:
                    a2:ed:4a:8c:1b:c9:0e:e1:ae:b4:e8:cf:ae:ff:a1:
                    00:38:d4:20:e2:6c:d2:d1:e2:26:3b:31:98:fb:db:
                    db:ff:2e:79:17:9d:9b:25:ba:2f:2d:ff:d9:73:23:
                    a3:9a:72:4f:02:13:46:20:bd:a3:d3:03:c3:00:b2:
                    70:f3:8d:bd:75:94:2b:07:39:48:94:78:d2:29:37:
                    4d:48:36:d4:78:fe:91:d7:40:7c:39:cc:be:61:a1:
                    e8:0d:8a:d4:82:18:aa:39:94:85:48:be:f6:14:12:
                    e7:3f
                Exponent: 65537 (0x10001)
        X509v3 extensions:
            X509v3 Key Usage: critical
                Digital Signature
            X509v3 Basic Constraints: 
                CA:FALSE
            X509v3 Extended Key Usage: 
                TLS Web Server Authentication
            X509v3 Subject Key Identifier: 
                71:D2:7D:F9:1C:15:97:0A:0C:F0:1C:E6:D2:A3:BC:9B:51:21:81:2D
            X509v3 Authority Key Identifier: 
                B7:BA:B0:02:A1:E7:BE:34:C6:C1:05:5C:66:78:E5:BB:53:5D:A1:54
            Authority Information Access: 
                CA Issuers - URI:http://pki.esodemoapp2.com/ca/tls-ca.cer
            X509v3 CRL Distribution Points: 
                Full Name:
                  URI:http://pki.esodemoapp2.com/ca/tls-ca.crl
            X509v3 Subject Alternative Name: 
                DNS:frontend.domain.com
    Signature Algorithm: sha256WithRSAEncryption
    Signature Value:
        0f:33:b1:b7:93:8e:79:9c:2b:a1:ba:6f:1b:33:bd:af:11:7d:
        1f:32:66:84:4a:5d:b5:80:22:78:1e:cb:51:bb:30:0d:e3:6c:
        08:55:53:42:da:82:e2:c0:35:eb:32:59:68:05:f4:fb:b8:18:
        67:8f:6b:c7:3b:f2:94:d3:cb:c8:38:49:05:42:c5:5d:36:fb:
        45:38:e4:52:c4:0c:5d:89:64:8c:32:90:05:d5:34:bc:1d:43:
        6e:d7:63:57:ff:10:b6:5e:03:ac:a4:df:fb:a8:f7:c5:43:97:
        e5:56:5a:46:88:5b:b0:22:78:d3:7e:16:d1:ac:86:aa:7c:05:
        91:74:ba:de:05:d5:5c:85:66:36:e7:da:b2:6b:2b:23:5b:7a:
        b2:0e:98:31:c8:65:6e:34:4c:b6:98:4a:1e:54:93:89:9b:85:
        12:df:48:c7:f8:66:db:4d:a0:5a:56:73:32:ca:0f:b9:29:6c:
        99:f9:21:f8:5f:d0:1b:06:a4:75:e8:83:ed:0c:da:1d:8a:2e:
        9f:d0:d2:43:b8:f5:3a:e1:ba:44:c6:8e:72:32:36:5f:00:a1:
        d8:ce:17:50:2e:b0:bc:b8:0b:be:e4:48:ee:e2:d7:52:e4:52:
        d5:4a:ca:8f:17:6f:de:ab:8b:6a:6b:80:54:10:1c:16:26:4e:
        1b:48:e9:e1
-----BEGIN CERTIFICATE-----
MIIEOjCCAyKgAwIBAgIBLDANBgkqhkiG9w0BAQsFADBXMQswCQYDVQQGEwJVUzEP
MA0GA1UECgwGR29vZ2xlMRMwEQYDVQQLDApFbnRlcnByaXNlMSIwIAYDVQQDDBlF
bnRlcnByaXNlIFN1Ym9yZGluYXRlIENBMB4XDTIyMTAwNDAxMzgzOFoXDTI1MDEx
MTAxMzgzOFowUTELMAkGA1UEBhMCVVMxDzANBgNVBAoMBkdvb2dsZTETMBEGA1UE
CwwKRW50ZXJwcmlzZTEcMBoGA1UEAwwTZnJvbnRlbmQuZG9tYWluLmNvbTCCASIw
DQYJKoZIhvcNAQEBBQADggEPADCCAQoCggEBALdWzZc8gTSNTuV9cz7WUzx9zFQF
9sX6edl1rJ1GNMCXcD4WqR0R+Yk0VTpYx3vZYb2lCgDCiNdZ8t8lOzu8sdWrABTV
CFfWFnqIQ6AH1E0gKv0p/f28+1mHgGpvQd5YmxLflyMbDWTzAYLwkWq7i2enOCdy
1NdxYzcb8uBuQLE+pxdkToNAPJsK+JYmJ/KdIWxL/EXnou1KjBvJDuGutOjPrv+h
ADjUIOJs0tHiJjsxmPvb2/8ueRedmyW6Ly3/2XMjo5pyTwITRiC9o9MDwwCycPON
vXWUKwc5SJR40ik3TUg21Hj+kddAfDnMvmGh6A2K1IIYqjmUhUi+9hQS5z8CAwEA
AaOCARUwggERMA4GA1UdDwEB/wQEAwIHgDAJBgNVHRMEAjAAMBMGA1UdJQQMMAoG
CCsGAQUFBwMBMB0GA1UdDgQWBBRx0n35HBWXCgzwHObSo7ybUSGBLTAfBgNVHSME
GDAWgBS3urACoee+NMbBBVxmeOW7U12hVDBEBggrBgEFBQcBAQQ4MDYwNAYIKwYB
BQUHMAKGKGh0dHA6Ly9wa2kuZXNvZGVtb2FwcDIuY29tL2NhL3Rscy1jYS5jZXIw
OQYDVR0fBDIwMDAuoCygKoYoaHR0cDovL3BraS5lc29kZW1vYXBwMi5jb20vY2Ev
dGxzLWNhLmNybDAeBgNVHREEFzAVghNmcm9udGVuZC5kb21haW4uY29tMA0GCSqG
SIb3DQEBCwUAA4IBAQAPM7G3k455nCuhum8bM72vEX0fMmaESl21gCJ4HstRuzAN
42wIVVNC2oLiwDXrMlloBfT7uBhnj2vHO/KU08vIOEkFQsVdNvtFOORSxAxdiWSM
MpAF1TS8HUNu12NX/xC2XgOspN/7qPfFQ5flVlpGiFuwInjTfhbRrIaqfAWRdLre
BdVchWY259qyaysjW3qyDpgxyGVuNEy2mEoeVJOJm4US30jH+GbbTaBaVnMyyg+5
KWyZ+SH4X9AbBqR16IPtDNodii6f0NJDuPU64bpExo5yMjZfAKHYzhdQLrC8uAu+
5Eju4tdS5FLVSsqPF2/eq4tqa4BUEBwWJk4bSOnh
-----END CERTIFICATE-----
